target datalayout = "e-m:e-p270:32:32-p271:32:32-p272:64:64-i64:64-i128:128-f80:128-n8:16:32:64-S128"
target triple = "x86_64-pc-linux-gnu"

%struct.mbedtls_mpi = type { ptr, i16, i16 }
%struct.mbedtls_rsa_context = type { i32, i64, %struct.mbedtls_mpi, %struct.mbedtls_mpi, %struct.mbedtls_mpi, %struct.mbedtls_mpi, %struct.mbedtls_mpi, %struct.mbedtls_mpi, %struct.mbedtls_mpi, %struct.mbedtls_mpi, %struct.mbedtls_mpi, %struct.mbedtls_mpi, %struct.mbedtls_mpi, %struct.mbedtls_mpi, %struct.mbedtls_mpi, i32, i32 }

@.str = private unnamed_addr constant [117 x i8] c"generated/home/dtcxzyw/WorkSpace/Projects/compilers/llvm-opt-benchmark/bench/lief/bench_build/mbed_src/library/rsa.c\00", align 1

; Function Attrs: inlinehint nounwind uwtable
define internal i32 @mbedtls_error_add(i32 noundef %0, i32 noundef %1, ptr noundef %2, i32 noundef %3) #3 {
  %5 = alloca i32, align 4
  %6 = alloca i32, align 4
  %7 = alloca ptr, align 8
  %8 = alloca i32, align 4
  store i32 %0, ptr %5, align 4, !tbaa !12
  store i32 %1, ptr %6, align 4, !tbaa !12
  store ptr %2, ptr %7, align 8, !tbaa !8
  store i32 %3, ptr %8, align 4, !tbaa !12
  %9 = load i32, ptr %5, align 4, !tbaa !12
  %10 = load i32, ptr %6, align 4, !tbaa !12
  %11 = add nsw i32 %9, %10
  ret i32 %11
}

; Function Attrs: nounwind uwtable
define hidden i32 @mbedtls_rsa_complete(ptr noundef %0) #0 {
  %2 = alloca i32, align 4
  %3 = alloca ptr, align 8
  %4 = alloca i32, align 4
  %5 = alloca i32, align 4
  %6 = alloca i32, align 4
  %7 = alloca i32, align 4
  %8 = alloca i32, align 4
  %9 = alloca i32, align 4
  %10 = alloca i32, align 4
  %11 = alloca i32, align 4
  %12 = alloca i32, align 4
  %13 = alloca i32, align 4
  %14 = alloca i32, align 4
  %15 = alloca i32, align 4
  %16 = alloca i32, align 4
  %17 = alloca i32, align 4
  %18 = alloca i32, align 4
  store ptr %0, ptr %3, align 8, !tbaa !3
  call void @llvm.lifetime.start.p0(i64 4, ptr %4) #9
  store i32 0, ptr %4, align 4, !tbaa !12
  call void @llvm.lifetime.start.p0(i64 4, ptr %5) #9
  call void @llvm.lifetime.start.p0(i64 4, ptr %6) #9
  call void @llvm.lifetime.start.p0(i64 4, ptr %7) #9
  call void @llvm.lifetime.start.p0(i64 4, ptr %8) #9
  call void @llvm.lifetime.start.p0(i64 4, ptr %9) #9
  call void @llvm.lifetime.start.p0(i64 4, ptr %10) #9
  call void @llvm.lifetime.start.p0(i64 4, ptr %11) #9
  call void @llvm.lifetime.start.p0(i64 4, ptr %12) #9
  call void @llvm.lifetime.start.p0(i64 4, ptr %13) #9
  call void @llvm.lifetime.start.p0(i64 4, ptr %14) #9
  call void @llvm.lifetime.start.p0(i64 4, ptr %15) #9
  call void @llvm.lifetime.start.p0(i64 4, ptr %16) #9
  call void @llvm.lifetime.start.p0(i64 4, ptr %17) #9
  %19 = load ptr, ptr %3, align 8, !tbaa !3
  %20 = getelementptr inbounds nuw %struct.mbedtls_rsa_context, ptr %19, i32 0, i32 2
  %21 = call i32 @mbedtls_mpi_cmp_int(ptr noundef %20, i64 noundef 0)
  %22 = icmp ne i32 %21, 0
  %23 = zext i1 %22 to i32
  store i32 %23, ptr %5, align 4, !tbaa !12
  %24 = load ptr, ptr %3, align 8, !tbaa !3
  %25 = getelementptr inbounds nuw %struct.mbedtls_rsa_context, ptr %24, i32 0, i32 5
  %26 = call i32 @mbedtls_mpi_cmp_int(ptr noundef %25, i64 noundef 0)
  %27 = icmp ne i32 %26, 0
  %28 = zext i1 %27 to i32
  store i32 %28, ptr %6, align 4, !tbaa !12
  %29 = load ptr, ptr %3, align 8, !tbaa !3
  %30 = getelementptr inbounds nuw %struct.mbedtls_rsa_context, ptr %29, i32 0, i32 6
  %31 = call i32 @mbedtls_mpi_cmp_int(ptr noundef %30, i64 noundef 0)
  %32 = icmp ne i32 %31, 0
  %33 = zext i1 %32 to i32
  store i32 %33, ptr %7, align 4, !tbaa !12
  %34 = load ptr, ptr %3, align 8, !tbaa !3
  %35 = getelementptr inbounds nuw %struct.mbedtls_rsa_context, ptr %34, i32 0, i32 4
  %36 = call i32 @mbedtls_mpi_cmp_int(ptr noundef %35, i64 noundef 0)
  %37 = icmp ne i32 %36, 0
  %38 = zext i1 %37 to i32
  store i32 %38, ptr %8, align 4, !tbaa !12
  %39 = load ptr, ptr %3, align 8, !tbaa !3
  %40 = getelementptr inbounds nuw %struct.mbedtls_rsa_context, ptr %39, i32 0, i32 3
  %41 = call i32 @mbedtls_mpi_cmp_int(ptr noundef %40, i64 noundef 0)
  %42 = icmp ne i32 %41, 0
  %43 = zext i1 %42 to i32
  store i32 %43, ptr %9, align 4, !tbaa !12
  %44 = load ptr, ptr %3, align 8, !tbaa !3
  %45 = getelementptr inbounds nuw %struct.mbedtls_rsa_context, ptr %44, i32 0, i32 7
  %46 = call i32 @mbedtls_mpi_cmp_int(ptr noundef %45, i64 noundef 0)
  %47 = icmp ne i32 %46, 0
  %48 = zext i1 %47 to i32
  store i32 %48, ptr %10, align 4, !tbaa !12
  %49 = load ptr, ptr %3, align 8, !tbaa !3
  %50 = getelementptr inbounds nuw %struct.mbedtls_rsa_context, ptr %49, i32 0, i32 8
  %51 = call i32 @mbedtls_mpi_cmp_int(ptr noundef %50, i64 noundef 0)
  %52 = icmp ne i32 %51, 0
  %53 = zext i1 %52 to i32
  store i32 %53, ptr %11, align 4, !tbaa !12
  %54 = load ptr, ptr %3, align 8, !tbaa !3
  %55 = getelementptr inbounds nuw %struct.mbedtls_rsa_context, ptr %54, i32 0, i32 9
  %56 = call i32 @mbedtls_mpi_cmp_int(ptr noundef %55, i64 noundef 0)
  %57 = icmp ne i32 %56, 0
  %58 = zext i1 %57 to i32
  store i32 %58, ptr %12, align 4, !tbaa !12
  %59 = load i32, ptr %6, align 4, !tbaa !12
  %60 = icmp ne i32 %59, 0
  br i1 %60, label %61, label %70

61:                                               ; preds = %1
  %62 = load i32, ptr %7, align 4, !tbaa !12
  %63 = icmp ne i32 %62, 0
  br i1 %63, label %64, label %70

64:                                               ; preds = %61
  %65 = load i32, ptr %8, align 4, !tbaa !12
  %66 = icmp ne i32 %65, 0
  br i1 %66, label %67, label %70

67:                                               ; preds = %64
  %68 = load i32, ptr %9, align 4, !tbaa !12
  %69 = icmp ne i32 %68, 0
  br label %70

70:                                               ; preds = %67, %64, %61, %1
  %71 = phi i1 [ false, %64 ], [ false, %61 ], [ false, %1 ], [ %69, %67 ]
  %72 = zext i1 %71 to i32
  store i32 %72, ptr %13, align 4, !tbaa !12
  %73 = load i32, ptr %5, align 4, !tbaa !12
  %74 = icmp ne i32 %73, 0
  br i1 %74, label %75, label %87

75:                                               ; preds = %70
  %76 = load i32, ptr %6, align 4, !tbaa !12
  %77 = icmp ne i32 %76, 0
  br i1 %77, label %87, label %78

78:                                               ; preds = %75
  %79 = load i32, ptr %7, align 4, !tbaa !12
  %80 = icmp ne i32 %79, 0
  br i1 %80, label %87, label %81

81:                                               ; preds = %78
  %82 = load i32, ptr %8, align 4, !tbaa !12
  %83 = icmp ne i32 %82, 0
  br i1 %83, label %84, label %87

84:                                               ; preds = %81
  %85 = load i32, ptr %9, align 4, !tbaa !12
  %86 = icmp ne i32 %85, 0
  br label %87

87:                                               ; preds = %84, %81, %78, %75, %70
  %88 = phi i1 [ false, %81 ], [ false, %78 ], [ false, %75 ], [ false, %70 ], [ %86, %84 ]
  %89 = zext i1 %88 to i32
  store i32 %89, ptr %14, align 4, !tbaa !12
  %90 = load i32, ptr %6, align 4, !tbaa !12
  %91 = icmp ne i32 %90, 0
  br i1 %91, label %92, label %101

92:                                               ; preds = %87
  %93 = load i32, ptr %7, align 4, !tbaa !12
  %94 = icmp ne i32 %93, 0
  br i1 %94, label %95, label %101

95:                                               ; preds = %92
  %96 = load i32, ptr %8, align 4, !tbaa !12
  %97 = icmp ne i32 %96, 0
  br i1 %97, label %101, label %98

98:                                               ; preds = %95
  %99 = load i32, ptr %9, align 4, !tbaa !12
  %100 = icmp ne i32 %99, 0
  br label %101

101:                                              ; preds = %98, %95, %92, %87
  %102 = phi i1 [ false, %95 ], [ false, %92 ], [ false, %87 ], [ %100, %98 ]
  %103 = zext i1 %102 to i32
  store i32 %103, ptr %15, align 4, !tbaa !12
  %104 = load i32, ptr %5, align 4, !tbaa !12
  %105 = icmp ne i32 %104, 0
  br i1 %105, label %106, label %118

106:                                              ; preds = %101
  %107 = load i32, ptr %6, align 4, !tbaa !12
  %108 = icmp ne i32 %107, 0
  br i1 %108, label %118, label %109

109:                                              ; preds = %106
  %110 = load i32, ptr %7, align 4, !tbaa !12
  %111 = icmp ne i32 %110, 0
  br i1 %111, label %118, label %112

112:                                              ; preds = %109
  %113 = load i32, ptr %8, align 4, !tbaa !12
  %114 = icmp ne i32 %113, 0
  br i1 %114, label %118, label %115

115:                                              ; preds = %112
  %116 = load i32, ptr %9, align 4, !tbaa !12
  %117 = icmp ne i32 %116, 0
  br label %118

118:                                              ; preds = %115, %112, %109, %106, %101
  %119 = phi i1 [ false, %112 ], [ false, %109 ], [ false, %106 ], [ false, %101 ], [ %117, %115 ]
  %120 = zext i1 %119 to i32
  store i32 %120, ptr %16, align 4, !tbaa !12
  %121 = load i32, ptr %13, align 4, !tbaa !12
  %122 = icmp ne i32 %121, 0
  br i1 %122, label %129, label %123

123:                                              ; preds = %118
  %124 = load i32, ptr %14, align 4, !tbaa !12
  %125 = icmp ne i32 %124, 0
  br i1 %125, label %129, label %126

126:                                              ; preds = %123
  %127 = load i32, ptr %15, align 4, !tbaa !12
  %128 = icmp ne i32 %127, 0
  br label %129

129:                                              ; preds = %126, %123, %118
  %130 = phi i1 [ true, %123 ], [ true, %118 ], [ %128, %126 ]
  %131 = zext i1 %130 to i32
  store i32 %131, ptr %17, align 4, !tbaa !12
  %132 = load i32, ptr %17, align 4, !tbaa !12
  %133 = icmp ne i32 %132, 0
  br i1 %133, label %138, label %134

134:                                              ; preds = %129
  %135 = load i32, ptr %16, align 4, !tbaa !12
  %136 = icmp ne i32 %135, 0
  br i1 %136, label %138, label %137

137:                                              ; preds = %134
  store i32 -16512, ptr %2, align 4
  store i32 1, ptr %18, align 4
  br label %241

138:                                              ; preds = %134, %129
  %139 = load i32, ptr %5, align 4, !tbaa !12
  %140 = icmp ne i32 %139, 0
  br i1 %140, label %165, label %141

141:                                              ; preds = %138
  %142 = load i32, ptr %6, align 4, !tbaa !12
  %143 = icmp ne i32 %142, 0
  br i1 %143, label %144, label %165

144:                                              ; preds = %141
  %145 = load i32, ptr %7, align 4, !tbaa !12
  %146 = icmp ne i32 %145, 0
  br i1 %146, label %147, label %165

147:                                              ; preds = %144
  %148 = load ptr, ptr %3, align 8, !tbaa !3
  %149 = getelementptr inbounds nuw %struct.mbedtls_rsa_context, ptr %148, i32 0, i32 2
  %150 = load ptr, ptr %3, align 8, !tbaa !3
  %151 = getelementptr inbounds nuw %struct.mbedtls_rsa_context, ptr %150, i32 0, i32 5
  %152 = load ptr, ptr %3, align 8, !tbaa !3
  %153 = getelementptr inbounds nuw %struct.mbedtls_rsa_context, ptr %152, i32 0, i32 6
  %154 = call i32 @mbedtls_mpi_mul_mpi(ptr noundef %149, ptr noundef %151, ptr noundef %153)
  store i32 %154, ptr %4, align 4, !tbaa !12
  %155 = icmp ne i32 %154, 0
  br i1 %155, label %156, label %159

156:                                              ; preds = %147
  %157 = load i32, ptr %4, align 4, !tbaa !12
  %158 = call i32 @mbedtls_error_add(i32 noundef -16512, i32 noundef %157, ptr noundef @.str, i32 noundef 772)
  store i32 %158, ptr %2, align 4
  store i32 1, ptr %18, align 4
  br label %241

159:                                              ; preds = %147
  %160 = load ptr, ptr %3, align 8, !tbaa !3
  %161 = getelementptr inbounds nuw %struct.mbedtls_rsa_context, ptr %160, i32 0, i32 2
  %162 = call i64 @mbedtls_mpi_size(ptr noundef %161)
  %163 = load ptr, ptr %3, align 8, !tbaa !3
  %164 = getelementptr inbounds nuw %struct.mbedtls_rsa_context, ptr %163, i32 0, i32 1
  store i64 %162, ptr %164, align 8, !tbaa !19
  br label %165

165:                                              ; preds = %159, %144, %141, %138
  %166 = load i32, ptr %14, align 4, !tbaa !12
  %167 = icmp ne i32 %166, 0
  br i1 %167, label %168, label %186

168:                                              ; preds = %165
  %169 = load ptr, ptr %3, align 8, !tbaa !3
  %170 = getelementptr inbounds nuw %struct.mbedtls_rsa_context, ptr %169, i32 0, i32 2
  %171 = load ptr, ptr %3, align 8, !tbaa !3
  %172 = getelementptr inbounds nuw %struct.mbedtls_rsa_context, ptr %171, i32 0, i32 3
  %173 = load ptr, ptr %3, align 8, !tbaa !3
  %174 = getelementptr inbounds nuw %struct.mbedtls_rsa_context, ptr %173, i32 0, i32 4
  %175 = load ptr, ptr %3, align 8, !tbaa !3
  %176 = getelementptr inbounds nuw %struct.mbedtls_rsa_context, ptr %175, i32 0, i32 5
  %177 = load ptr, ptr %3, align 8, !tbaa !3
  %178 = getelementptr inbounds nuw %struct.mbedtls_rsa_context, ptr %177, i32 0, i32 6
  %179 = call i32 @mbedtls_rsa_deduce_primes(ptr noundef %170, ptr noundef %172, ptr noundef %174, ptr noundef %176, ptr noundef %178)
  store i32 %179, ptr %4, align 4, !tbaa !12
  %180 = load i32, ptr %4, align 4, !tbaa !12
  %181 = icmp ne i32 %180, 0
  br i1 %181, label %182, label %185

182:                                              ; preds = %168
  %183 = load i32, ptr %4, align 4, !tbaa !12
  %184 = call i32 @mbedtls_error_add(i32 noundef -16512, i32 noundef %183, ptr noundef @.str, i32 noundef 786)
  store i32 %184, ptr %2, align 4
  store i32 1, ptr %18, align 4
  br label %241

185:                                              ; preds = %168
  br label %205

186:                                              ; preds = %165
  %187 = load i32, ptr %15, align 4, !tbaa !12
  %188 = icmp ne i32 %187, 0
  br i1 %188, label %189, label %204

189:                                              ; preds = %186
  %190 = load ptr, ptr %3, align 8, !tbaa !3
  %191 = getelementptr inbounds nuw %struct.mbedtls_rsa_context, ptr %190, i32 0, i32 5
  %192 = load ptr, ptr %3, align 8, !tbaa !3
  %193 = getelementptr inbounds nuw %struct.mbedtls_rsa_context, ptr %192, i32 0, i32 6
  %194 = load ptr, ptr %3, align 8, !tbaa !3
  %195 = getelementptr inbounds nuw %struct.mbedtls_rsa_context, ptr %194, i32 0, i32 3
  %196 = load ptr, ptr %3, align 8, !tbaa !3
  %197 = getelementptr inbounds nuw %struct.mbedtls_rsa_context, ptr %196, i32 0, i32 4
  %198 = call i32 @mbedtls_rsa_deduce_private_exponent(ptr noundef %191, ptr noundef %193, ptr noundef %195, ptr noundef %197)
  store i32 %198, ptr %4, align 4, !tbaa !12
  %199 = icmp ne i32 %198, 0
  br i1 %199, label %200, label %203

200:                                              ; preds = %189
  %201 = load i32, ptr %4, align 4, !tbaa !12
  %202 = call i32 @mbedtls_error_add(i32 noundef -16512, i32 noundef %201, ptr noundef @.str, i32 noundef 794)
  store i32 %202, ptr %2, align 4
  store i32 1, ptr %18, align 4
  br label %241

203:                                              ; preds = %189
  br label %204

204:                                              ; preds = %203, %186
  br label %205

205:                                              ; preds = %204, %185
  %206 = load i32, ptr %17, align 4, !tbaa !12
  %207 = icmp ne i32 %206, 0
  br i1 %207, label %208, label %237

208:                                              ; preds = %205
  %209 = load i32, ptr %10, align 4, !tbaa !12
  %210 = icmp ne i32 %209, 0
  br i1 %210, label %211, label %217

211:                                              ; preds = %208
  %212 = load i32, ptr %11, align 4, !tbaa !12
  %213 = icmp ne i32 %212, 0
  br i1 %213, label %214, label %217

214:                                              ; preds = %211
  %215 = load i32, ptr %12, align 4, !tbaa !12
  %216 = icmp ne i32 %215, 0
  br i1 %216, label %237, label %217

217:                                              ; preds = %214, %211, %208
  %218 = load ptr, ptr %3, align 8, !tbaa !3
  %219 = getelementptr inbounds nuw %struct.mbedtls_rsa_context, ptr %218, i32 0, i32 5
  %220 = load ptr, ptr %3, align 8, !tbaa !3
  %221 = getelementptr inbounds nuw %struct.mbedtls_rsa_context, ptr %220, i32 0, i32 6
  %222 = load ptr, ptr %3, align 8, !tbaa !3
  %223 = getelementptr inbounds nuw %struct.mbedtls_rsa_context, ptr %222, i32 0, i32 4
  %224 = load ptr, ptr %3, align 8, !tbaa !3
  %225 = getelementptr inbounds nuw %struct.mbedtls_rsa_context, ptr %224, i32 0, i32 7
  %226 = load ptr, ptr %3, align 8, !tbaa !3
  %227 = getelementptr inbounds nuw %struct.mbedtls_rsa_context, ptr %226, i32 0, i32 8
  %228 = load ptr, ptr %3, align 8, !tbaa !3
  %229 = getelementptr inbounds nuw %struct.mbedtls_rsa_context, ptr %228, i32 0, i32 9
  %230 = call i32 @mbedtls_rsa_deduce_crt(ptr noundef %219, ptr noundef %221, ptr noundef %223, ptr noundef %225, ptr noundef %227, ptr noundef %229)
  store i32 %230, ptr %4, align 4, !tbaa !12
  %231 = load i32, ptr %4, align 4, !tbaa !12
  %232 = icmp ne i32 %231, 0
  br i1 %232, label %233, label %236

233:                                              ; preds = %217
  %234 = load i32, ptr %4, align 4, !tbaa !12
  %235 = call i32 @mbedtls_error_add(i32 noundef -16512, i32 noundef %234, ptr noundef @.str, i32 noundef 808)
  store i32 %235, ptr %2, align 4
  store i32 1, ptr %18, align 4
  br label %241

236:                                              ; preds = %217
  br label %237

237:                                              ; preds = %236, %214, %205
  %238 = load ptr, ptr %3, align 8, !tbaa !3
  %239 = load i32, ptr %17, align 4, !tbaa !12
  %240 = call i32 @rsa_check_context(ptr noundef %238, i32 noundef %239, i32 noundef 1)
  store i32 %240, ptr %2, align 4
  store i32 1, ptr %18, align 4
  br label %241

241:                                              ; preds = %237, %233, %200, %182, %156, %137
  call void @llvm.lifetime.end.p0(i64 4, ptr %17) #9
  call void @llvm.lifetime.end.p0(i64 4, ptr %16) #9
  call void @llvm.lifetime.end.p0(i64 4, ptr %15) #9
  call void @llvm.lifetime.end.p0(i64 4, ptr %14) #9
  call void @llvm.lifetime.end.p0(i64 4, ptr %13) #9
  call void @llvm.lifetime.end.p0(i64 4, ptr %12) #9
  call void @llvm.lifetime.end.p0(i64 4, ptr %11) #9
  call void @llvm.lifetime.end.p0(i64 4, ptr %10) #9
  call void @llvm.lifetime.end.p0(i64 4, ptr %9) #9
  call void @llvm.lifetime.end.p0(i64 4, ptr %8) #9
  call void @llvm.lifetime.end.p0(i64 4, ptr %7) #9
  call void @llvm.lifetime.end.p0(i64 4, ptr %6) #9
  call void @llvm.lifetime.end.p0(i64 4, ptr %5) #9
  call void @llvm.lifetime.end.p0(i64 4, ptr %4) #9
  %242 = load i32, ptr %2, align 4
  ret i32 %242
}