; Function Attrs: nounwind uwtable
define hidden range(i32 -2147483648, 2147467136) i32 @mbedtls_rsa_complete(ptr noundef %0) local_unnamed_addr #0 {
  %2 = getelementptr inbounds nuw i8, ptr %0, i64 16
  %3 = tail call i32 @mbedtls_mpi_cmp_int(ptr noundef nonnull %2, i64 noundef 0) #14
  %.not = icmp eq i32 %3, 0
  %4 = getelementptr inbounds nuw i8, ptr %0, i64 64
  %5 = tail call i32 @mbedtls_mpi_cmp_int(ptr noundef nonnull %4, i64 noundef 0) #14
  %6 = icmp ne i32 %5, 0
  %7 = getelementptr inbounds nuw i8, ptr %0, i64 80
  %8 = tail call i32 @mbedtls_mpi_cmp_int(ptr noundef nonnull %7, i64 noundef 0) #14
  %9 = icmp ne i32 %8, 0
  %10 = getelementptr inbounds nuw i8, ptr %0, i64 48
  %11 = tail call i32 @mbedtls_mpi_cmp_int(ptr noundef nonnull %10, i64 noundef 0) #14
  %.fr = freeze i32 %11
  %12 = icmp ne i32 %.fr, 0
  %13 = getelementptr inbounds nuw i8, ptr %0, i64 32
  %14 = tail call i32 @mbedtls_mpi_cmp_int(ptr noundef nonnull %13, i64 noundef 0) #14
  %15 = icmp ne i32 %14, 0
  %16 = getelementptr inbounds nuw i8, ptr %0, i64 96
  %17 = tail call i32 @mbedtls_mpi_cmp_int(ptr noundef nonnull %16, i64 noundef 0) #14
  %18 = icmp eq i32 %17, 0
  %19 = getelementptr inbounds nuw i8, ptr %0, i64 112
  %20 = tail call i32 @mbedtls_mpi_cmp_int(ptr noundef nonnull %19, i64 noundef 0) #14
  %21 = icmp eq i32 %20, 0
  %22 = getelementptr inbounds nuw i8, ptr %0, i64 128
  %23 = tail call i32 @mbedtls_mpi_cmp_int(ptr noundef nonnull %22, i64 noundef 0) #14
  %24 = icmp eq i32 %23, 0
  %or.cond = select i1 %6, i1 %9, i1 false
  %or.cond5 = select i1 %.not, i1 true, i1 %6
  %or.cond7 = select i1 %or.cond5, i1 true, i1 %9
  %or.cond7.not = xor i1 %or.cond7, true
  %or.cond9 = and i1 %12, %or.cond7.not
  %spec.select110 = select i1 %or.cond9, i1 %15, i1 false
  %.not112 = xor i1 %12, true
  %not.or.cond13 = and i1 %or.cond, %.not112
  %spec.select107 = select i1 %not.or.cond13, i1 %15, i1 false
  %or.cond19 = or i1 %or.cond7, %12
  %not.or.cond19 = xor i1 %or.cond19, true
  %25 = select i1 %or.cond, i1 true, i1 %or.cond7.not
  %26 = select i1 %12, i1 %25, i1 %or.cond
  %spec.select108 = select i1 %26, i1 %15, i1 false
  %27 = zext i1 %spec.select108 to i32
  %28 = select i1 %26, i1 true, i1 %not.or.cond19
  %or.cond23 = select i1 %28, i1 %15, i1 false
  br i1 %or.cond23, label %29, label %54

29:                                               ; preds = %1
  %or.cond25 = select i1 %.not, i1 %6, i1 false
  %or.cond27 = select i1 %or.cond25, i1 %9, i1 false
  br i1 %or.cond27, label %30, label %37

30:                                               ; preds = %29
  %31 = tail call i32 @mbedtls_mpi_mul_mpi(ptr noundef nonnull %2, ptr noundef nonnull %4, ptr noundef nonnull %7) #14
  %.not103 = icmp eq i32 %31, 0
  br i1 %.not103, label %34, label %32

32:                                               ; preds = %30
  %33 = add nsw i32 %31, -16512
  br label %54

34:                                               ; preds = %30
  %35 = tail call i64 @mbedtls_mpi_size(ptr noundef nonnull %2) #14
  %36 = getelementptr inbounds nuw i8, ptr %0, i64 8
  store i64 %35, ptr %36, align 8, !tbaa !12
  br label %37

37:                                               ; preds = %34, %29
  br i1 %spec.select110, label %38, label %42

38:                                               ; preds = %37
  %39 = tail call i32 @mbedtls_rsa_deduce_primes(ptr noundef nonnull %2, ptr noundef nonnull %13, ptr noundef nonnull %10, ptr noundef nonnull %4, ptr noundef nonnull %7) #14
  %.not105 = icmp eq i32 %39, 0
  br i1 %.not105, label %47, label %40

40:                                               ; preds = %38
  %41 = add nsw i32 %39, -16512
  br label %54

42:                                               ; preds = %37
  br i1 %spec.select107, label %43, label %47

43:                                               ; preds = %42
  %44 = tail call i32 @mbedtls_rsa_deduce_private_exponent(ptr noundef nonnull %4, ptr noundef nonnull %7, ptr noundef nonnull %13, ptr noundef nonnull %10) #14
  %.not104 = icmp eq i32 %44, 0
  br i1 %.not104, label %47, label %45

45:                                               ; preds = %43
  %46 = add nsw i32 %44, -16512
  br label %54

47:                                               ; preds = %42, %43, %38
  %or.cond29.not117 = select i1 %18, i1 true, i1 %21
  %or.cond31.not114 = select i1 %or.cond29.not117, i1 true, i1 %24
  %or.cond109.not = select i1 %spec.select108, i1 %or.cond31.not114, i1 false
  br i1 %or.cond109.not, label %48, label %52

48:                                               ; preds = %47
  %49 = tail call i32 @mbedtls_rsa_deduce_crt(ptr noundef nonnull %4, ptr noundef nonnull %7, ptr noundef nonnull %10, ptr noundef nonnull %16, ptr noundef nonnull %19, ptr noundef nonnull %22) #14
  %.not106 = icmp eq i32 %49, 0
  br i1 %.not106, label %52, label %50

50:                                               ; preds = %48
  %51 = add nsw i32 %49, -16512
  br label %54

52:                                               ; preds = %48, %47
  %53 = tail call fastcc i32 @rsa_check_context(ptr noundef nonnull %0, i32 noundef %27)
  br label %54

54:                                               ; preds = %1, %52, %50, %45, %40, %32
  %.0 = phi i32 [ %33, %32 ], [ %41, %40 ], [ %53, %52 ], [ %51, %50 ], [ %46, %45 ], [ -16512, %1 ]
  ret i32 %.0
}